; Function Attrs: mustprogress uwtable
define internal void @_ZN12_GLOBAL__N_136grpc_fake_channel_security_connector15add_handshakersERKN9grpc_core11ChannelArgsEP16grpc_pollset_setPNS1_16HandshakeManagerE(ptr noundef nonnull align 8 dereferenceable(152) %this, ptr noundef nonnull align 8 dereferenceable(8) %args, ptr nocapture readnone %0, ptr noundef %handshake_mgr) unnamed_addr #3 align 2 personality ptr @__gxx_personality_v0 {
entry:
  %agg.tmp = alloca %"class.grpc_core::RefCountedPtr.50", align 8
  %call = tail call noundef ptr @_Z26tsi_create_fake_handshakeri(i32 noundef 1)
  call void @_ZN9grpc_core24SecurityHandshakerCreateEP14tsi_handshakerP23grpc_security_connectorRKNS_11ChannelArgsE(ptr nonnull sret(%"class.grpc_core::RefCountedPtr.50") align 8 %agg.tmp, ptr noundef %call, ptr noundef nonnull %this, ptr noundef nonnull align 8 dereferenceable(8) %args)
  invoke void @_ZN9grpc_core16HandshakeManager3AddENS_13RefCountedPtrINS_10HandshakerEEE(ptr noundef nonnull align 8 dereferenceable(216) %handshake_mgr, ptr noundef nonnull %agg.tmp)
          to label %invoke.cont unwind label %lpad

invoke.cont:                                      ; preds = %entry
  %1 = load ptr, ptr %agg.tmp, align 8
  %cmp.not.i = icmp eq ptr %1, null
  br i1 %cmp.not.i, label %_ZN9grpc_core13RefCountedPtrINS_10HandshakerEED2Ev.exit, label %if.then.i

if.then.i:                                        ; preds = %invoke.cont
  %refs_.i.i = getelementptr inbounds i8, ptr %1, i64 8
  %2 = atomicrmw sub ptr %refs_.i.i, i64 1 acq_rel, align 8
  %cmp.i.i.i = icmp eq i64 %2, 1
  br i1 %cmp.i.i.i, label %if.then.i.i, label %_ZN9grpc_core13RefCountedPtrINS_10HandshakerEED2Ev.exit

if.then.i.i:                                      ; preds = %if.then.i
  %vtable.i.i.i = load ptr, ptr %1, align 8
  %vfn.i.i.i = getelementptr inbounds i8, ptr %vtable.i.i.i, i64 8
  %3 = load ptr, ptr %vfn.i.i.i, align 8
  call void %3(ptr noundef nonnull align 8 dereferenceable(16) %1) #19
  br label %_ZN9grpc_core13RefCountedPtrINS_10HandshakerEED2Ev.exit

_ZN9grpc_core13RefCountedPtrINS_10HandshakerEED2Ev.exit: ; preds = %invoke.cont, %if.then.i, %if.then.i.i
  ret void

lpad:                                             ; preds = %entry
  %4 = landingpad { ptr, i32 }
          cleanup
  %5 = load ptr, ptr %agg.tmp, align 8
  %cmp.not.i1 = icmp eq ptr %5, null
  br i1 %cmp.not.i1, label %_ZN9grpc_core13RefCountedPtrINS_10HandshakerEED2Ev.exit8, label %if.then.i2

if.then.i2:                                       ; preds = %lpad
  %refs_.i.i3 = getelementptr inbounds i8, ptr %5, i64 8
  %6 = atomicrmw sub ptr %refs_.i.i3, i64 1 acq_rel, align 8
  %cmp.i.i.i4 = icmp eq i64 %6, 1
  br i1 %cmp.i.i.i4, label %if.then.i.i5, label %_ZN9grpc_core13RefCountedPtrINS_10HandshakerEED2Ev.exit8

if.then.i.i5:                                     ; preds = %if.then.i2
  %vtable.i.i.i6 = load ptr, ptr %5, align 8
  %vfn.i.i.i7 = getelementptr inbounds i8, ptr %vtable.i.i.i6, i64 8
  %7 = load ptr, ptr %vfn.i.i.i7, align 8
  call void %7(ptr noundef nonnull align 8 dereferenceable(16) %5) #19
  br label %_ZN9grpc_core13RefCountedPtrINS_10HandshakerEED2Ev.exit8

_ZN9grpc_core13RefCountedPtrINS_10HandshakerEED2Ev.exit8: ; preds = %lpad, %if.then.i2, %if.then.i.i5
  resume { ptr, i32 } %4
}